; Function Attrs: nounwind uwtable
define range(i32 0, 2) i32 @ossl_err_load_ERR_strings() local_unnamed_addr #0 {
  %1 = tail call i32 @CRYPTO_THREAD_run_once(ptr noundef nonnull @err_string_init, ptr noundef nonnull @do_err_strings_init_ossl_) #10
  %2 = icmp ne i32 %1, 0
  %3 = load i32, ptr @do_err_strings_init_ossl_ret_, align 4
  %4 = icmp ne i32 %3, 0
  %or.cond = select i1 %2, i1 %4, i1 false
  br i1 %or.cond, label %5, label %err_load_strings.exit10

5:                                                ; preds = %0
  %6 = load ptr, ptr @err_string_lock, align 8, !tbaa !14
  %7 = tail call i32 @CRYPTO_THREAD_write_lock(ptr noundef %6) #10
  %.not.i = icmp eq i32 %7, 0
  br i1 %.not.i, label %err_load_strings.exit, label %.preheader.i

.preheader.i:                                     ; preds = %5
  %8 = load i64, ptr @ERR_str_libraries, align 16, !tbaa !17
  %.not45.i = icmp eq i64 %8, 0
  br i1 %.not45.i, label %._crit_edge.i, label %.lr.ph.i

.lr.ph.i:                                         ; preds = %.preheader.i, %.lr.ph.i
  %.06.i = phi ptr [ %11, %.lr.ph.i ], [ @ERR_str_libraries, %.preheader.i ]
  %9 = load ptr, ptr @int_error_hash, align 8, !tbaa !15
  %10 = tail call ptr @OPENSSL_LH_insert(ptr noundef %9, ptr noundef nonnull %.06.i) #10
  %11 = getelementptr inbounds nuw i8, ptr %.06.i, i64 16
  %12 = load i64, ptr %11, align 8, !tbaa !17
  %.not4.i = icmp eq i64 %12, 0
  br i1 %.not4.i, label %._crit_edge.i, label %.lr.ph.i, !llvm.loop !19

._crit_edge.i:                                    ; preds = %.lr.ph.i, %.preheader.i
  %13 = load ptr, ptr @err_string_lock, align 8, !tbaa !14
  %14 = tail call i32 @CRYPTO_THREAD_unlock(ptr noundef %13) #10
  br label %err_load_strings.exit

err_load_strings.exit:                            ; preds = %5, %._crit_edge.i
  %15 = load ptr, ptr @err_string_lock, align 8, !tbaa !14
  %16 = tail call i32 @CRYPTO_THREAD_write_lock(ptr noundef %15) #10
  %.not.i2 = icmp eq i32 %16, 0
  br i1 %.not.i2, label %err_load_strings.exit10, label %.preheader.i3

.preheader.i3:                                    ; preds = %err_load_strings.exit
  %17 = load i64, ptr @ERR_str_reasons, align 16, !tbaa !17
  %.not45.i4 = icmp eq i64 %17, 0
  br i1 %.not45.i4, label %._crit_edge.i8, label %.lr.ph.i5

.lr.ph.i5:                                        ; preds = %.preheader.i3, %.lr.ph.i5
  %.06.i6 = phi ptr [ %20, %.lr.ph.i5 ], [ @ERR_str_reasons, %.preheader.i3 ]
  %18 = load ptr, ptr @int_error_hash, align 8, !tbaa !15
  %19 = tail call ptr @OPENSSL_LH_insert(ptr noundef %18, ptr noundef nonnull %.06.i6) #10
  %20 = getelementptr inbounds nuw i8, ptr %.06.i6, i64 16
  %21 = load i64, ptr %20, align 8, !tbaa !17
  %.not4.i7 = icmp eq i64 %21, 0
  br i1 %.not4.i7, label %._crit_edge.i8, label %.lr.ph.i5, !llvm.loop !19

._crit_edge.i8:                                   ; preds = %.lr.ph.i5, %.preheader.i3
  %22 = load ptr, ptr @err_string_lock, align 8, !tbaa !14
  %23 = tail call i32 @CRYPTO_THREAD_unlock(ptr noundef %22) #10
  br label %err_load_strings.exit10

err_load_strings.exit10:                          ; preds = %._crit_edge.i8, %err_load_strings.exit, %0
  %.0 = phi i32 [ 0, %0 ], [ 1, %err_load_strings.exit ], [ 1, %._crit_edge.i8 ]
  ret i32 %.0
}